target datalayout = "e-m:e-p270:32:32-p271:32:32-p272:64:64-i64:64-i128:128-f80:128-n8:16:32:64-S128"
target triple = "x86_64-pc-linux-gnu"

%struct._zend_assert_globals = type { %struct._zval_struct, ptr, i8, i8, i8, i8 }
%struct._zval_struct = type { %union._zend_value, %union.anon, %union.anon.2 }
%union._zend_value = type { i64 }
%union.anon = type { i32 }
%union.anon.2 = type { i32 }

@assert_globals = hidden global %struct._zend_assert_globals zeroinitializer, align 8

; Function Attrs: nounwind uwtable
define hidden i32 @zm_shutdown_assert(i32 noundef %0, i32 noundef %1) #0 {
  %3 = alloca i32, align 4
  %4 = alloca i32, align 4
  store i32 %0, ptr %3, align 4
  store i32 %1, ptr %4, align 4
  %5 = load ptr, ptr getelementptr inbounds (%struct._zend_assert_globals, ptr @assert_globals, i32 0, i32 1), align 8
  %6 = icmp ne ptr %5, null
  br i1 %6, label %7, label %9

7:                                                ; preds = %2
  %8 = load ptr, ptr getelementptr inbounds (%struct._zend_assert_globals, ptr @assert_globals, i32 0, i32 1), align 8
  call void @free(ptr noundef %8) #8
  store ptr null, ptr getelementptr inbounds (%struct._zend_assert_globals, ptr @assert_globals, i32 0, i32 1), align 8
  br label %9

9:                                                ; preds = %7, %2
  ret i32 0
}