; Function Attrs: mustprogress nounwind willreturn uwtable
define hidden noundef i32 @zm_shutdown_assert(i32 noundef %0, i32 noundef %1) local_unnamed_addr #2 {
  %3 = load ptr, ptr getelementptr inbounds (%struct._zend_assert_globals, ptr @assert_globals, i64 0, i32 1), align 8
  %.not = icmp eq ptr %3, null
  br i1 %.not, label %5, label %4

4:                                                ; preds = %2
  tail call void @free(ptr noundef nonnull %3) #8
  store ptr null, ptr getelementptr inbounds (%struct._zend_assert_globals, ptr @assert_globals, i64 0, i32 1), align 8
  br label %5

5:                                                ; preds = %4, %2
  ret i32 0
}